; Function Attrs: mustprogress nofree norecurse nosync nounwind willreturn memory(read, inaccessiblemem: none) uwtable
define internal range(i32 32, 58) i32 @ecx_size(ptr noundef readonly captures(none) %0) #1 {
  %2 = getelementptr inbounds nuw i8, ptr %0, i64 8
  %3 = load ptr, ptr %2, align 8, !tbaa !12
  %4 = load i32, ptr %3, align 8, !tbaa !25
  switch i32 %4, label %5 [
    i32 1034, label %8
    i32 1087, label %8
  ]

5:                                                ; preds = %1
  %6 = icmp eq i32 %4, 1035
  %7 = select i1 %6, i32 56, i32 57
  br label %8

8:                                                ; preds = %1, %1, %5
  %9 = phi i32 [ %7, %5 ], [ 32, %1 ], [ 32, %1 ]
  ret i32 %9
}